; ModuleID = '52/295.c'
source_filename = "52/295.c"
target datalayout = "e-m:e-p270:32:32-p271:32:32-p272:64:64-i64:64-f80:128-n8:16:32:64-S128"
target triple = "x86_64-pc-linux-gnu"

@.str = private unnamed_addr constant [5 x i8] c"%d%d\00", align 1
@.str.1 = private unnamed_addr constant [3 x i8] c"%d\00", align 1
@.str.2 = private unnamed_addr constant [4 x i8] c"%d \00", align 1

; Function Attrs: noinline nounwind uwtable
define dso_local i32 @move(i32* %0, i32 %1, i32 %2) #0 {
  %4 = alloca i32, align 4
  %5 = alloca i32*, align 8
  %6 = alloca i32, align 4
  %7 = alloca i32, align 4
  %8 = alloca i32*, align 8
  %9 = alloca i32, align 4
  store i32* %0, i32** %5, align 8
  store i32 %1, i32* %6, align 4
  store i32 %2, i32* %7, align 4
  %10 = load i32*, i32** %5, align 8
  %11 = load i32, i32* %6, align 4
  %12 = sext i32 %11 to i64
  %13 = getelementptr inbounds i32, i32* %10, i64 %12
  %14 = getelementptr inbounds i32, i32* %13, i64 -1
  %15 = load i32, i32* %14, align 4
  store i32 %15, i32* %9, align 4
  %16 = load i32*, i32** %5, align 8
  %17 = load i32, i32* %6, align 4
  %18 = sext i32 %17 to i64
  %19 = getelementptr inbounds i32, i32* %16, i64 %18
  %20 = getelementptr inbounds i32, i32* %19, i64 -1
  store i32* %20, i32** %8, align 8
  br label %21

21:                                               ; preds = %30, %3
  %22 = load i32*, i32** %8, align 8
  %23 = load i32*, i32** %5, align 8
  %24 = icmp ugt i32* %22, %23
  br i1 %24, label %25, label %33

25:                                               ; preds = %21
  %26 = load i32*, i32** %8, align 8
  %27 = getelementptr inbounds i32, i32* %26, i64 -1
  %28 = load i32, i32* %27, align 4
  %29 = load i32*, i32** %8, align 8
  store i32 %28, i32* %29, align 4
  br label %30

30:                                               ; preds = %25
  %31 = load i32*, i32** %8, align 8
  %32 = getelementptr inbounds i32, i32* %31, i32 -1
  store i32* %32, i32** %8, align 8
  br label %21

33:                                               ; preds = %21
  %34 = load i32, i32* %9, align 4
  %35 = load i32*, i32** %5, align 8
  store i32 %34, i32* %35, align 4
  %36 = load i32, i32* %7, align 4
  %37 = add nsw i32 %36, -1
  store i32 %37, i32* %7, align 4
  %38 = load i32, i32* %7, align 4
  %39 = icmp sgt i32 %38, 0
  br i1 %39, label %40, label %45

40:                                               ; preds = %33
  %41 = load i32*, i32** %5, align 8
  %42 = load i32, i32* %6, align 4
  %43 = load i32, i32* %7, align 4
  %44 = call i32 @move(i32* %41, i32 %42, i32 %43)
  br label %45

45:                                               ; preds = %40, %33
  %46 = load i32, i32* %4, align 4
  ret i32 %46
}

; Function Attrs: noinline nounwind uwtable
define dso_local i32 @main(i32 %0, i8** %1) #0 {
  %3 = alloca i32, align 4
  %4 = alloca i32, align 4
  %5 = alloca i8**, align 8
  %6 = alloca i32, align 4
  %7 = alloca i32, align 4
  %8 = alloca [100 x i32], align 16
  %9 = alloca i32, align 4
  store i32 0, i32* %3, align 4
  store i32 %0, i32* %4, align 4
  store i8** %1, i8*** %5, align 8
  %10 = call i32 (i8*, ...) @__isoc99_scanf(i8* getelementptr inbounds ([5 x i8], [5 x i8]* @.str, i64 0, i64 0), i32* %6, i32* %7)
  store i32 0, i32* %9, align 4
  br label %11

11:                                               ; preds = %20, %2
  %12 = load i32, i32* %9, align 4
  %13 = load i32, i32* %6, align 4
  %14 = icmp slt i32 %12, %13
  br i1 %14, label %15, label %23

15:                                               ; preds = %11
  %16 = load i32, i32* %9, align 4
  %17 = sext i32 %16 to i64
  %18 = getelementptr inbounds [100 x i32], [100 x i32]* %8, i64 0, i64 %17
  %19 = call i32 (i8*, ...) @__isoc99_scanf(i8* getelementptr inbounds ([3 x i8], [3 x i8]* @.str.1, i64 0, i64 0), i32* %18)
  br label %20

20:                                               ; preds = %15
  %21 = load i32, i32* %9, align 4
  %22 = add nsw i32 %21, 1
  store i32 %22, i32* %9, align 4
  br label %11

23:                                               ; preds = %11
  %24 = getelementptr inbounds [100 x i32], [100 x i32]* %8, i64 0, i64 0
  %25 = load i32, i32* %6, align 4
  %26 = load i32, i32* %7, align 4
  %27 = call i32 @move(i32* %24, i32 %25, i32 %26)
  store i32 0, i32* %9, align 4
  br label %28

28:                                               ; preds = %39, %23
  %29 = load i32, i32* %9, align 4
  %30 = load i32, i32* %6, align 4
  %31 = sub nsw i32 %30, 1
  %32 = icmp slt i32 %29, %31
  br i1 %32, label %33, label %42

33:                                               ; preds = %28
  %34 = load i32, i32* %9, align 4
  %35 = sext i32 %34 to i64
  %36 = getelementptr inbounds [100 x i32], [100 x i32]* %8, i64 0, i64 %35
  %37 = load i32, i32* %36, align 4
  %38 = call i32 (i8*, ...) @printf(i8* getelementptr inbounds ([4 x i8], [4 x i8]* @.str.2, i64 0, i64 0), i32 %37)
  br label %39

39:                                               ; preds = %33
  %40 = load i32, i32* %9, align 4
  %41 = add nsw i32 %40, 1
  store i32 %41, i32* %9, align 4
  br label %28

42:                                               ; preds = %28
  %43 = load i32, i32* %6, align 4
  %44 = sub nsw i32 %43, 1
  %45 = sext i32 %44 to i64
  %46 = getelementptr inbounds [100 x i32], [100 x i32]* %8, i64 0, i64 %45
  %47 = load i32, i32* %46, align 4
  %48 = call i32 (i8*, ...) @printf(i8* getelementptr inbounds ([3 x i8], [3 x i8]* @.str.1, i64 0, i64 0), i32 %47)
  ret i32 0
}

declare dso_local i32 @__isoc99_scanf(i8*, ...) #1

declare dso_local i32 @printf(i8*, ...) #1


!llvm.module.flags = !{!0}
!llvm.ident = !{!1}

!0 = !{i32 1, !"wchar_size", i32 4}
!1 = !{!"clang version 10.0.0-4ubuntu1 "}
